target datalayout = "e-m:e-p270:32:32-p271:32:32-p272:64:64-i64:64-i128:128-f80:128-n8:16:32:64-S128"
target triple = "x86_64-pc-linux-gnu"

%struct.redisServer = type { i32, i64, ptr, ptr, ptr, i32, i32, i32, i32, i32, ptr, ptr, ptr, ptr, ptr, i32, i32, i32, i32, i64, i32, i32, i32, i32, ptr, i32, i32, [41 x i8], i32, i64, i32, i32, i32, ptr, ptr, i32, i32, i64, ptr, ptr, ptr, ptr, [2 x i32], i32, i32, i32, i32, i32, i32, [16 x ptr], i32, ptr, ptr, i32, [8 x %struct.connListener], i32, %struct.connListener, ptr, ptr, ptr, ptr, ptr, ptr, ptr, ptr, ptr, ptr, i32, ptr, i32, ptr, [3 x %struct.pause_event], [256 x i8], ptr, i64, i32, i32, [128 x i32], i32, i32, i64, i32, i32, i32, i32, i32, i64, i64, i64, i64, i64, i64, i64, i64, i64, i64, double, i64, i64, i64, i64, i64, i64, i64, i64, i64, i64, i64, i64, i64, i64, i64, i64, i64, i64, i64, i64, i64, double, i64, i64, i64, i64, i64, ptr, i64, i64, i64, %struct.malloc_stats, i64, i64, i64, i64, i64, i64, i64, i64, i64, i64, i64, i64, double, [4 x i64], i64, i64, i64, i64, [128 x i64], [128 x i64], i64, i64, [7 x %struct.anon], i64, i64, i64, i64, i64, i64, [4 x %struct.durationStats], i32, i32, i32, i32, i32, i32, i32, i32, i32, i32, i32, i32, i64, i32, i32, i32, i32, i64, i64, i32, i32, i32, i32, i32, ptr, [3 x %struct.clientBufferLimitsConfig], i32, i32, i32, ptr, i32, i32, i32, i32, i32, i32, ptr, ptr, i32, i32, i64, i64, i64, i64, i64, i32, i32, ptr, i32, i32, i64, i64, i64, i64, i64, i32, i32, i64, i32, i32, i32, i32, i32, i32, i32, i32, ptr, i32, i64, i64, i64, i64, i32, ptr, i32, ptr, i32, i32, i32, i64, i64, i64, i64, i32, i32, i32, i32, i32, i32, ptr, i32, i32, ptr, i32, i32, i32, [2 x i32], i32, %struct.redisOpArray, i32, ptr, i32, ptr, i32, i32, i32, i32, i32, i32, i32, [41 x i8], [41 x i8], i64, i64, i64, i64, i32, i32, ptr, i64, i64, %struct.replDataBuf, i64, i64, i32, i32, i32, i32, i32, i32, i32, i32, i32, i64, ptr, i64, ptr, ptr, ptr, i32, i32, ptr, ptr, i32, i32, i32, i64, i64, i64, i64, ptr, ptr, i32, ptr, i64, i32, i32, i32, i64, i32, i32, i32, i32, ptr, i32, i32, [41 x i8], i64, i32, ptr, i32, i32, i64, i64, i32, i32, i32, i32, i32, i64, [3 x i32], i32, i32, i32, [10 x i32], ptr, ptr, i32, i64, ptr, ptr, i32, i32, i32, i32, i64, i64, i64, i64, i64, i64, i64, i64, i64, i64, i32, i32, i64, i64, i32, i64, i64, i64, i64, i64, ptr, ptr, i32, ptr, i32, i32, i32, i32, i64, i64, ptr, ptr, i32, i32, i32, i32, i32, ptr, ptr, ptr, i32, i32, i32, i32, i32, i32, i32, i64, i32, i32, i64, i32, i32, i32, i32, i32, i32, i32, i64, ptr, ptr, i64, ptr, i32, %struct.aclInfo, i32, i64, i32, i32, i32, %struct.redisTLSContextConfig, ptr, ptr, ptr, ptr, ptr, i64, i32, ptr, i32, i32, i32, i64, i32, ptr }
%struct.connListener = type { [16 x i32], i32, ptr, i32, i32, ptr, ptr }
%struct.pause_event = type { i32, i64 }
%struct.malloc_stats = type { i64, i64, i64, i64, i64, i64, i64, i64, i64, i64, i64 }
%struct.anon = type { i64, i64, [16 x i64], i32 }
%struct.durationStats = type { i64, i64, i64 }
%struct.clientBufferLimitsConfig = type { i64, i64, i64 }
%struct.redisOpArray = type { ptr, i32, i32 }
%struct.replDataBuf = type { ptr, i64, i64, i64, i64 }
%struct.aclInfo = type { i64, i64, i64, i64 }
%struct.redisTLSContextConfig = type { ptr, ptr, ptr, ptr, ptr, ptr, ptr, ptr, ptr, ptr, ptr, ptr, i32, i32, i32, i32 }

@.str.1 = private unnamed_addr constant [6 x i8] c"aof.c\00", align 1
@server = external global %struct.redisServer, align 8
@.str.66 = private unnamed_addr constant [28 x i8] c"server.aof_state == AOF_OFF\00", align 1
@.str.67 = private unnamed_addr constant [123 x i8] c"AOF was enabled but there is already another background operation. An AOF background was scheduled to start when possible.\00", align 1
@.str.68 = private unnamed_addr constant [94 x i8] c"AOF was enabled during a transaction. An AOF background was scheduled to start when possible.\00", align 1
@.str.69 = private unnamed_addr constant [121 x i8] c"AOF was enabled but there is already an AOF rewriting in background. Stopping background AOF and starting a rewrite now.\00", align 1
@.str.70 = private unnamed_addr constant [136 x i8] c"Redis needs to enable the AOF but can't trigger a background AOF rewrite operation. Check the above logs for more info about the error.\00", align 1
@.str.71 = private unnamed_addr constant [55 x i8] c"AOF reopen, just ignore the AOF fsync error in bio job\00", align 1
@.str.72 = private unnamed_addr constant [40 x i8] c"AOF reopen, just ignore the last error.\00", align 1

; Function Attrs: nounwind uwtable
define dso_local i32 @startAppendOnly() #0 {
  %1 = alloca i32, align 4
  %2 = alloca i32, align 4
  %3 = alloca i32, align 4
  %4 = alloca i32, align 4
  %5 = load i32, ptr getelementptr inbounds nuw (%struct.redisServer, ptr @server, i32 0, i32 193), align 8, !tbaa !84
  %6 = icmp eq i32 %5, 0
  %7 = xor i1 %6, true
  %8 = xor i1 %7, true
  %9 = zext i1 %8 to i32
  %10 = sext i32 %9 to i64
  %11 = call i64 @llvm.expect.i64(i64 %10, i64 1)
  %12 = icmp ne i64 %11, 0
  br i1 %12, label %13, label %14

13:                                               ; preds = %0
  br label %16

14:                                               ; preds = %0
  call void @_serverAssert(ptr noundef @.str.66, ptr noundef @.str.1, i32 noundef 1032)
  call void @abort() #14
  unreachable

15:                                               ; No predecessors!
  br label %16

16:                                               ; preds = %15, %13
  store i32 2, ptr getelementptr inbounds nuw (%struct.redisServer, ptr @server, i32 0, i32 193), align 8, !tbaa !84
  %17 = call i32 @hasActiveChildProcess()
  %18 = icmp ne i32 %17, 0
  br i1 %18, label %19, label %29

19:                                               ; preds = %16
  %20 = load i32, ptr getelementptr inbounds nuw (%struct.redisServer, ptr @server, i32 0, i32 44), align 4, !tbaa !99
  %21 = icmp ne i32 %20, 2
  br i1 %21, label %22, label %29

22:                                               ; preds = %19
  store i32 1, ptr getelementptr inbounds nuw (%struct.redisServer, ptr @server, i32 0, i32 205), align 4, !tbaa !104
  br label %23

23:                                               ; preds = %22
  %24 = load i32, ptr getelementptr inbounds nuw (%struct.redisServer, ptr @server, i32 0, i32 159), align 8, !tbaa !67
  %25 = icmp slt i32 2, %24
  br i1 %25, label %26, label %27

26:                                               ; preds = %23
  br label %28

27:                                               ; preds = %23
  call void (i32, ptr, ...) @_serverLog(i32 noundef 2, ptr noundef @.str.67)
  br label %28

28:                                               ; preds = %27, %26
  br label %61

29:                                               ; preds = %19, %16
  %30 = load i32, ptr getelementptr inbounds nuw (%struct.redisServer, ptr @server, i32 0, i32 31), align 4, !tbaa !115
  %31 = icmp ne i32 %30, 0
  br i1 %31, label %32, label %39

32:                                               ; preds = %29
  store i32 1, ptr getelementptr inbounds nuw (%struct.redisServer, ptr @server, i32 0, i32 205), align 4, !tbaa !104
  br label %33

33:                                               ; preds = %32
  %34 = load i32, ptr getelementptr inbounds nuw (%struct.redisServer, ptr @server, i32 0, i32 159), align 8, !tbaa !67
  %35 = icmp slt i32 2, %34
  br i1 %35, label %36, label %37

36:                                               ; preds = %33
  br label %38

37:                                               ; preds = %33
  call void (i32, ptr, ...) @_serverLog(i32 noundef 2, ptr noundef @.str.68)
  br label %38

38:                                               ; preds = %37, %36
  br label %60

39:                                               ; preds = %29
  %40 = load i32, ptr getelementptr inbounds nuw (%struct.redisServer, ptr @server, i32 0, i32 44), align 4, !tbaa !99
  %41 = icmp eq i32 %40, 2
  br i1 %41, label %42, label %49

42:                                               ; preds = %39
  br label %43

43:                                               ; preds = %42
  %44 = load i32, ptr getelementptr inbounds nuw (%struct.redisServer, ptr @server, i32 0, i32 159), align 8, !tbaa !67
  %45 = icmp slt i32 2, %44
  br i1 %45, label %46, label %47

46:                                               ; preds = %43
  br label %48

47:                                               ; preds = %43
  call void (i32, ptr, ...) @_serverLog(i32 noundef 2, ptr noundef @.str.69)
  br label %48

48:                                               ; preds = %47, %46
  call void @killAppendOnlyChild()
  br label %49

49:                                               ; preds = %48, %39
  %50 = call i32 @rewriteAppendOnlyFileBackground()
  %51 = icmp eq i32 %50, -1
  br i1 %51, label %52, label %59

52:                                               ; preds = %49
  store i32 0, ptr getelementptr inbounds nuw (%struct.redisServer, ptr @server, i32 0, i32 193), align 8, !tbaa !84
  br label %53

53:                                               ; preds = %52
  %54 = load i32, ptr getelementptr inbounds nuw (%struct.redisServer, ptr @server, i32 0, i32 159), align 8, !tbaa !67
  %55 = icmp slt i32 3, %54
  br i1 %55, label %56, label %57

56:                                               ; preds = %53
  br label %58

57:                                               ; preds = %53
  call void (i32, ptr, ...) @_serverLog(i32 noundef 3, ptr noundef @.str.70)
  br label %58

58:                                               ; preds = %57, %56
  store i32 -1, ptr %1, align 4
  br label %91

59:                                               ; preds = %49
  br label %60

60:                                               ; preds = %59, %38
  br label %61

61:                                               ; preds = %60, %28
  %62 = load i64, ptr getelementptr inbounds nuw (%struct.redisServer, ptr @server, i32 0, i32 369), align 8, !tbaa !94
  store i64 %62, ptr getelementptr inbounds nuw (%struct.redisServer, ptr @server, i32 0, i32 210), align 8, !tbaa !95
  call void @llvm.lifetime.start.p0(i64 4, ptr %2) #12
  br label %63

63:                                               ; preds = %61
  %64 = load atomic i32, ptr getelementptr inbounds nuw (%struct.redisServer, ptr @server, i32 0, i32 223) monotonic, align 8
  store i32 %64, ptr %3, align 4
  %65 = load i32, ptr %3, align 4, !tbaa !22
  store i32 %65, ptr %2, align 4, !tbaa !22
  br label %66

66:                                               ; preds = %63
  br label %67

67:                                               ; preds = %66
  %68 = load i32, ptr %2, align 4, !tbaa !22
  %69 = icmp eq i32 %68, -1
  br i1 %69, label %70, label %79

70:                                               ; preds = %67
  br label %71

71:                                               ; preds = %70
  %72 = load i32, ptr getelementptr inbounds nuw (%struct.redisServer, ptr @server, i32 0, i32 159), align 8, !tbaa !67
  %73 = icmp slt i32 3, %72
  br i1 %73, label %74, label %75

74:                                               ; preds = %71
  br label %77

75:                                               ; preds = %71
  call void (i32, ptr, ...) @_serverLog(i32 noundef 3, ptr noundef @.str.71)
  br label %76

76:                                               ; preds = %75
  br label %77

77:                                               ; preds = %76, %74
  store i32 0, ptr %4, align 4, !tbaa !22
  %78 = load i32, ptr %4, align 4
  store atomic i32 %78, ptr getelementptr inbounds nuw (%struct.redisServer, ptr @server, i32 0, i32 223) monotonic, align 8
  br label %79

79:                                               ; preds = %77, %67
  %80 = load i32, ptr getelementptr inbounds nuw (%struct.redisServer, ptr @server, i32 0, i32 219), align 8, !tbaa !112
  %81 = icmp eq i32 %80, -1
  br i1 %81, label %82, label %90

82:                                               ; preds = %79
  br label %83

83:                                               ; preds = %82
  %84 = load i32, ptr getelementptr inbounds nuw (%struct.redisServer, ptr @server, i32 0, i32 159), align 8, !tbaa !67
  %85 = icmp slt i32 3, %84
  br i1 %85, label %86, label %87

86:                                               ; preds = %83
  br label %89

87:                                               ; preds = %83
  call void (i32, ptr, ...) @_serverLog(i32 noundef 3, ptr noundef @.str.72)
  br label %88

88:                                               ; preds = %87
  br label %89

89:                                               ; preds = %88, %86
  store i32 0, ptr getelementptr inbounds nuw (%struct.redisServer, ptr @server, i32 0, i32 219), align 8, !tbaa !112
  br label %90

90:                                               ; preds = %89, %79
  store i32 0, ptr %1, align 4
  call void @llvm.lifetime.end.p0(i64 4, ptr %2) #12
  br label %91

91:                                               ; preds = %90, %58
  %92 = load i32, ptr %1, align 4
  ret i32 %92
}