; Function Attrs: nounwind uwtable
define dso_local range(i32 -1, 1) i32 @startAppendOnly() local_unnamed_addr #0 {
  %1 = load i32, ptr getelementptr inbounds nuw (i8, ptr @server, i64 6520), align 8, !tbaa !79
  %2 = icmp eq i32 %1, 0
  br i1 %2, label %4, label %3, !prof !71

3:                                                ; preds = %0
  tail call void @_serverAssert(ptr noundef nonnull @.str.66, ptr noundef nonnull @.str.1, i32 noundef 1032) #20
  tail call void @abort() #21
  unreachable

4:                                                ; preds = %0
  store i32 2, ptr getelementptr inbounds nuw (i8, ptr @server, i64 6520), align 8, !tbaa !79
  %5 = tail call i32 @hasActiveChildProcess() #20
  %6 = icmp ne i32 %5, 0
  %7 = load i32, ptr getelementptr inbounds nuw (i8, ptr @server, i64 308), align 4
  %8 = icmp ne i32 %7, 2
  %or.cond = select i1 %6, i1 %8, i1 false
  br i1 %or.cond, label %9, label %12

9:                                                ; preds = %4
  store i32 1, ptr getelementptr inbounds nuw (i8, ptr @server, i64 6596), align 4, !tbaa !98
  %10 = load i32, ptr getelementptr inbounds nuw (i8, ptr @server, i64 6288), align 8, !tbaa !65
  %11 = icmp sgt i32 %10, 2
  br i1 %11, label %31, label %.sink.split

12:                                               ; preds = %4
  %13 = load i32, ptr getelementptr inbounds nuw (i8, ptr @server, i64 220), align 4, !tbaa !110
  %.not = icmp eq i32 %13, 0
  br i1 %.not, label %17, label %14

14:                                               ; preds = %12
  store i32 1, ptr getelementptr inbounds nuw (i8, ptr @server, i64 6596), align 4, !tbaa !98
  %15 = load i32, ptr getelementptr inbounds nuw (i8, ptr @server, i64 6288), align 8, !tbaa !65
  %16 = icmp sgt i32 %15, 2
  br i1 %16, label %31, label %.sink.split

17:                                               ; preds = %12
  %18 = icmp eq i32 %7, 2
  br i1 %18, label %19, label %24

19:                                               ; preds = %17
  %20 = load i32, ptr getelementptr inbounds nuw (i8, ptr @server, i64 6288), align 8, !tbaa !65
  %21 = icmp sgt i32 %20, 2
  br i1 %21, label %23, label %22

22:                                               ; preds = %19
  tail call void (i32, ptr, ...) @_serverLog(i32 noundef 2, ptr noundef nonnull @.str.69) #20
  br label %23

23:                                               ; preds = %19, %22
  tail call void @killAppendOnlyChild()
  br label %24

24:                                               ; preds = %23, %17
  %25 = tail call i32 @rewriteAppendOnlyFileBackground()
  %26 = icmp eq i32 %25, -1
  br i1 %26, label %27, label %31

27:                                               ; preds = %24
  store i32 0, ptr getelementptr inbounds nuw (i8, ptr @server, i64 6520), align 8, !tbaa !79
  %28 = load i32, ptr getelementptr inbounds nuw (i8, ptr @server, i64 6288), align 8, !tbaa !65
  %29 = icmp sgt i32 %28, 3
  br i1 %29, label %48, label %30

30:                                               ; preds = %27
  tail call void (i32, ptr, ...) @_serverLog(i32 noundef 3, ptr noundef nonnull @.str.70) #20
  br label %48

.sink.split:                                      ; preds = %14, %9
  %.str.68.sink = phi ptr [ @.str.67, %9 ], [ @.str.68, %14 ]
  tail call void (i32, ptr, ...) @_serverLog(i32 noundef 2, ptr noundef nonnull %.str.68.sink) #20
  br label %31

31:                                               ; preds = %.sink.split, %14, %24, %9
  %32 = load i64, ptr getelementptr inbounds nuw (i8, ptr @server, i64 7808), align 8, !tbaa !88
  store i64 %32, ptr getelementptr inbounds nuw (i8, ptr @server, i64 6624), align 8, !tbaa !89
  %33 = load atomic i32, ptr getelementptr inbounds nuw (i8, ptr @server, i64 6696) monotonic, align 8
  %34 = icmp eq i32 %33, -1
  br i1 %34, label %35, label %40

35:                                               ; preds = %31
  %36 = load i32, ptr getelementptr inbounds nuw (i8, ptr @server, i64 6288), align 8, !tbaa !65
  %37 = icmp sgt i32 %36, 3
  br i1 %37, label %39, label %38

38:                                               ; preds = %35
  tail call void (i32, ptr, ...) @_serverLog(i32 noundef 3, ptr noundef nonnull @.str.71) #20
  br label %39

39:                                               ; preds = %35, %38
  store atomic i32 0, ptr getelementptr inbounds nuw (i8, ptr @server, i64 6696) monotonic, align 8
  br label %40

40:                                               ; preds = %39, %31
  %41 = load i32, ptr getelementptr inbounds nuw (i8, ptr @server, i64 6680), align 8, !tbaa !107
  %42 = icmp eq i32 %41, -1
  br i1 %42, label %43, label %48

43:                                               ; preds = %40
  %44 = load i32, ptr getelementptr inbounds nuw (i8, ptr @server, i64 6288), align 8, !tbaa !65
  %45 = icmp sgt i32 %44, 3
  br i1 %45, label %47, label %46

46:                                               ; preds = %43
  tail call void (i32, ptr, ...) @_serverLog(i32 noundef 3, ptr noundef nonnull @.str.72) #20
  br label %47

47:                                               ; preds = %43, %46
  store i32 0, ptr getelementptr inbounds nuw (i8, ptr @server, i64 6680), align 8, !tbaa !107
  br label %48

48:                                               ; preds = %40, %47, %30, %27
  %.0 = phi i32 [ -1, %27 ], [ -1, %30 ], [ 0, %47 ], [ 0, %40 ]
  ret i32 %.0
}